; Function Attrs: null_pointer_is_valid sspstrong uwtable
define internal i32 @dissect_ppp(ptr noundef %0, ptr noundef %1, ptr noundef %2, ptr readnone captures(none) %3) #1 {
  %5 = load i32, ptr @proto_ppp, align 4
  %6 = tail call ptr @proto_tree_add_item(ptr noundef %2, i32 noundef %5, ptr noundef %0, i32 noundef 0, i32 noundef -1, i32 noundef 0)
  %7 = load i32, ptr @ett_ppp, align 4
  %8 = tail call ptr @proto_item_add_subtree(ptr noundef %6, i32 noundef %7)
  tail call fastcc void @dissect_ppp_common(ptr noundef %0, ptr noundef %1, ptr noundef %2, ptr noundef %8, ptr noundef %6, i32 noundef 0)
  %9 = tail call i32 @tvb_captured_length(ptr noundef %0)
  ret i32 %9
}